ARM GAS  C:\Users\Keith\AppData\Local\Temp\cc1DQM7j.s 			page 1


   1              		.syntax unified
   2              		.cpu cortex-m0
   3              		.fpu softvfp
   4              		.eabi_attribute 20, 1
   5              		.eabi_attribute 21, 1
   6              		.eabi_attribute 23, 3
   7              		.eabi_attribute 24, 1
   8              		.eabi_attribute 25, 1
   9              		.eabi_attribute 26, 1
  10              		.eabi_attribute 30, 1
  11              		.eabi_attribute 34, 0
  12              		.eabi_attribute 18, 4
  13              		.thumb
  14              		.syntax unified
  15              		.file	"main.c"
  16              		.text
  17              	.Ltext0:
  18              		.cfi_sections	.debug_frame
  19              		.section	.text.setLED,"ax",%progbits
  20              		.align	2
  21              		.global	setLED
  22              		.code	16
  23              		.thumb_func
  24              		.type	setLED, %function
  25              	setLED:
  26              	.LFB36:
  27              		.file 1 "main.c"
   1:main.c        **** /* ========================================
   2:main.c        ****  *
   3:main.c        ****  * EX2_String
   4:main.c        ****  *
   5:main.c        ****  * A simple function to cycle the color table
   6:main.c        ****  * through the string.
   7:main.c        ****  *
   8:main.c        ****  * ========================================
   9:main.c        **** */
  10:main.c        **** #include "project.h"
  11:main.c        **** //#include <main.h>
  12:main.c        **** 
  13:main.c        **** static uint32 SPIS_WaitForCommand(void);
  14:main.c        **** static void SPIS_CleanupAfterRead(void);
  15:main.c        **** static uint8 ExecuteCommand(uint32 cmd, uint32 color);
  16:main.c        **** void setLED(uint32 firstLED, uint32 onLED, uint32 color);
  17:main.c        **** void determineColor(uint32 red, uint32 green, uint32 blue);
  18:main.c        **** const uint8 dummyBuffer[3u] = {0xFFu, 0xFFu, 0xFFu};
  19:main.c        **** void setBG(uint32 firstLED, uint32 lastLED);
  20:main.c        **** void rainbowFade2White();
  21:main.c        **** 
  22:main.c        **** int main(void)
  23:main.c        **** {
  24:main.c        ****     uint32 cmd = 16;
  25:main.c        ****     uint32 status;
  26:main.c        ****     CyGlobalIntEnable; /* Enable global interrupts. */
  27:main.c        ****     StripLights_Start();
  28:main.c        ****     SPIS_Start();
  29:main.c        **** 
  30:main.c        ****     /* Place your initialization/startup code here (e.g. MyInst_Start()) */
ARM GAS  C:\Users\Keith\AppData\Local\Temp\cc1DQM7j.s 			page 2


  31:main.c        ****     //
  32:main.c        ****     setBG (0, 550);
  33:main.c        ****     
  34:main.c        ****     int i = 55;
  35:main.c        ****     
  36:main.c        ****     for(;;){
  37:main.c        ****         
  38:main.c        ****         
  39:main.c        ****         //cmd = SPIS_WaitForCommand();
  40:main.c        **** 
  41:main.c        ****         
  42:main.c        ****         
  43:main.c        ****         ExecuteCommand(cmd, StripLights_getColor((i + StripLights_CWHEEL_SIZE)));
  44:main.c        ****         
  45:main.c        ****         
  46:main.c        ****         cmd = cmd + 1u;
  47:main.c        ****         if(cmd > 42u) {
  48:main.c        ****             cmd = 16u;
  49:main.c        ****         }
  50:main.c        ****         
  51:main.c        ****         i = i + 1;
  52:main.c        ****         if(i >= 100) {
  53:main.c        ****             i = 10;
  54:main.c        ****         }
  55:main.c        ****         
  56:main.c        **** 
  57:main.c        ****         
  58:main.c        ****         //SPIS_CleanupAfterRead();
  59:main.c        ****     }
  60:main.c        ****     CyDelay(100);
  61:main.c        **** }
  62:main.c        **** 
  63:main.c        **** 
  64:main.c        **** static uint32 SPIS_WaitForCommand(void)
  65:main.c        **** {
  66:main.c        ****     uint8 tmpBuffer[3u];
  67:main.c        ****     uint32 cmd;
  68:main.c        ****     uint32 i;
  69:main.c        **** 
  70:main.c        ****     /* Wait for the end of the transfer */
  71:main.c        ****     while (3u != SPIS_SpiUartGetRxBufferSize())
  72:main.c        ****     {
  73:main.c        ****     }
  74:main.c        **** 
  75:main.c        ****     /* Read packet from the buffer */
  76:main.c        ****     i = 0u;
  77:main.c        ****     while (0u != SPIS_SpiUartGetRxBufferSize())
  78:main.c        ****     {
  79:main.c        ****         tmpBuffer[i] = SPIS_SpiUartReadRxData();
  80:main.c        ****         i = i + 1u;
  81:main.c        ****     }
  82:main.c        **** 
  83:main.c        ****     cmd = tmpBuffer[1u];
  84:main.c        **** 
  85:main.c        ****     return (cmd);
  86:main.c        **** }
  87:main.c        **** 
ARM GAS  C:\Users\Keith\AppData\Local\Temp\cc1DQM7j.s 			page 3


  88:main.c        **** static void SPIS_CleanupAfterRead(void)
  89:main.c        **** {
  90:main.c        ****     /* Wait for the end of the transfer */
  91:main.c        **** 
  92:main.c        ****     SPIS_SpiUartClearRxBuffer();
  93:main.c        **** 
  94:main.c        **** }
  95:main.c        **** 
  96:main.c        **** static uint8 ExecuteCommand(uint32 cmd, uint32 color)
  97:main.c        **** {
  98:main.c        ****     uint8 status;
  99:main.c        **** 
 100:main.c        ****     //status = STS_CMD_DONE;
 101:main.c        **** 
 102:main.c        ****     /* Execute received command */
 103:main.c        ****     switch (cmd)
 104:main.c        ****     {
 105:main.c        ****        
 106:main.c        ****         case 16u:
 107:main.c        ****             setLED (522, 548, color);
 108:main.c        ****             break; //1x7
 109:main.c        ****             
 110:main.c        ****         case 17u:
 111:main.c        ****             setLED (441, 467, color);
 112:main.c        ****             break;
 113:main.c        **** 
 114:main.c        ****         case 18u:
 115:main.c        ****             setLED (414, 440, color);
 116:main.c        ****             break; //1x6
 117:main.c        ****         
 118:main.c        ****         case 19u:
 119:main.c        ****             setLED (332, 358, color);
 120:main.c        ****             break; //0x6
 121:main.c        ****             
 122:main.c        ****         case 20u:
 123:main.c        ****             setLED (305, 331, color);
 124:main.c        ****             break; //0x5
 125:main.c        ****             
 126:main.c        ****         case 21u:
 127:main.c        ****             setLED (222, 248, color);
 128:main.c        ****             break; //1x5
 129:main.c        ****             
 130:main.c        ****         case 22u:
 131:main.c        ****             setLED (193, 221, color);
 132:main.c        ****             break; // 1x4
 133:main.c        ****             
 134:main.c        ****         case 23u:
 135:main.c        ****             setLED (106, 134, color);
 136:main.c        ****             break; // 0x4
 137:main.c        ****             
 138:main.c        ****         case 24u:
 139:main.c        ****             setLED (496, 521, color);
 140:main.c        ****             break; // 0x3
 141:main.c        **** 
 142:main.c        ****         case 25u:
 143:main.c        ****             setLED (468, 495, color);
 144:main.c        ****             break; // 1x3
ARM GAS  C:\Users\Keith\AppData\Local\Temp\cc1DQM7j.s 			page 4


 145:main.c        ****             
 146:main.c        ****         case 26u:
 147:main.c        ****             setLED (387, 413, color);
 148:main.c        ****             break; // 1x2
 149:main.c        ****             
 150:main.c        ****         case 27u:
 151:main.c        ****             setLED (395, 386, color);
 152:main.c        ****             break; // 0x2
 153:main.c        ****             
 154:main.c        ****         case 28u:
 155:main.c        ****             setLED (277, 304, color);
 156:main.c        ****             break; //0x1
 157:main.c        ****         
 158:main.c        ****         case 29u:
 159:main.c        ****             setLED (249, 276, color);
 160:main.c        ****             break; // 1x1
 161:main.c        ****             
 162:main.c        ****         case 30u:
 163:main.c        ****             setLED (164, 192, color);
 164:main.c        ****             break; // 1x0
 165:main.c        ****             
 166:main.c        ****         case 31u:
 167:main.c        ****             setLED (135, 163, color);
 168:main.c        ****             break; // 0x0
 169:main.c        ****             
 170:main.c        ****         case 32u:
 171:main.c        ****             setLED (80, 105, color);
 172:main.c        ****             break;
 173:main.c        ****             
 174:main.c        ****         case 33u:
 175:main.c        ****             setLED (0, 27, color);
 176:main.c        ****             break;
 177:main.c        ****             
 178:main.c        ****         case 40u:
 179:main.c        ****             setLED (54, 79, color);
 180:main.c        ****             break;
 181:main.c        ****         case 41:
 182:main.c        ****             setLED (28, 53, color);
 183:main.c        ****             break;
 184:main.c        ****             
 185:main.c        ****         default:
 186:main.c        ****            //setBG (0, 550);
 187:main.c        ****             break;
 188:main.c        ****     }
 189:main.c        **** 
 190:main.c        ****     return (status);
 191:main.c        **** }
 192:main.c        **** 
 193:main.c        **** void setLED (uint32 firstLED, uint32 lastLED, uint32 color) {
  28              		.loc 1 193 0
  29              		.cfi_startproc
  30              		@ args = 0, pretend = 0, frame = 0
  31              		@ frame_needed = 0, uses_anonymous_args = 0
  32              	.LVL0:
  33 0000 70B5     		push	{r4, r5, r6, lr}
  34              		.cfi_def_cfa_offset 16
  35              		.cfi_offset 4, -16
ARM GAS  C:\Users\Keith\AppData\Local\Temp\cc1DQM7j.s 			page 5


  36              		.cfi_offset 5, -12
  37              		.cfi_offset 6, -8
  38              		.cfi_offset 14, -4
  39 0002 0400     		movs	r4, r0
  40 0004 0D00     		movs	r5, r1
  41 0006 1600     		movs	r6, r2
 194:main.c        ****     uint32 led;
 195:main.c        ****     
 196:main.c        ****     StripLights_Dim(2);
  42              		.loc 1 196 0
  43 0008 0220     		movs	r0, #2
  44              	.LVL1:
  45 000a FFF7FEFF 		bl	StripLights_Dim
  46              	.LVL2:
 197:main.c        ****     
 198:main.c        ****     for(led = firstLED; led <= lastLED; led++) {
  47              		.loc 1 198 0
  48 000e 0CE0     		b	.L2
  49              	.LVL3:
  50              	.L4:
 199:main.c        ****         StripLights_Pixel(led, 0, color);
  51              		.loc 1 199 0
  52 0010 3200     		movs	r2, r6
  53 0012 0021     		movs	r1, #0
  54 0014 2000     		movs	r0, r4
  55 0016 FFF7FEFF 		bl	StripLights_Pixel
  56              	.LVL4:
  57              	.L3:
 200:main.c        ****         while(StripLights_Ready() == 0);
  58              		.loc 1 200 0 discriminator 1
  59 001a FFF7FEFF 		bl	StripLights_Ready
  60              	.LVL5:
  61 001e 0028     		cmp	r0, #0
  62 0020 FBD0     		beq	.L3
 201:main.c        ****         CyDelay(10);
  63              		.loc 1 201 0 discriminator 2
  64 0022 0A20     		movs	r0, #10
  65 0024 FFF7FEFF 		bl	CyDelay
  66              	.LVL6:
 198:main.c        ****         StripLights_Pixel(led, 0, color);
  67              		.loc 1 198 0 discriminator 2
  68 0028 0134     		adds	r4, r4, #1
  69              	.LVL7:
  70              	.L2:
 198:main.c        ****         StripLights_Pixel(led, 0, color);
  71              		.loc 1 198 0 is_stmt 0 discriminator 1
  72 002a AC42     		cmp	r4, r5
  73 002c F0D9     		bls	.L4
 202:main.c        ****         
 203:main.c        ****     }
 204:main.c        ****     StripLights_Trigger(1);
  74              		.loc 1 204 0 is_stmt 1
  75 002e 0120     		movs	r0, #1
  76 0030 FFF7FEFF 		bl	StripLights_Trigger
  77              	.LVL8:
 205:main.c        ****     CyDelay(100);
  78              		.loc 1 205 0
ARM GAS  C:\Users\Keith\AppData\Local\Temp\cc1DQM7j.s 			page 6


  79 0034 6420     		movs	r0, #100
  80 0036 FFF7FEFF 		bl	CyDelay
  81              	.LVL9:
 206:main.c        **** }
  82              		.loc 1 206 0
  83              		@ sp needed
  84              	.LVL10:
  85              	.LVL11:
  86              	.LVL12:
  87 003a 70BD     		pop	{r4, r5, r6, pc}
  88              		.cfi_endproc
  89              	.LFE36:
  90              		.size	setLED, .-setLED
  91              		.section	.text.ExecuteCommand,"ax",%progbits
  92              		.align	2
  93              		.code	16
  94              		.thumb_func
  95              		.type	ExecuteCommand, %function
  96              	ExecuteCommand:
  97              	.LFB35:
  97:main.c        ****     uint8 status;
  98              		.loc 1 97 0
  99              		.cfi_startproc
 100              		@ args = 0, pretend = 0, frame = 0
 101              		@ frame_needed = 0, uses_anonymous_args = 0
 102              	.LVL13:
 103 0000 10B5     		push	{r4, lr}
 104              		.cfi_def_cfa_offset 8
 105              		.cfi_offset 4, -8
 106              		.cfi_offset 14, -4
 103:main.c        ****     {
 107              		.loc 1 103 0
 108 0002 1038     		subs	r0, r0, #16
 109              	.LVL14:
 110 0004 1928     		cmp	r0, #25
 111 0006 00D9     		bls	.LCB85
 112 0008 8DE0     		b	.L6	@long jump
 113              	.LCB85:
 114 000a 8000     		lsls	r0, r0, #2
 115              	.LVL15:
 116 000c 474B     		ldr	r3, .L28
 117 000e 1B58     		ldr	r3, [r3, r0]
 118 0010 9F46     		mov	pc, r3
 119              		.section	.rodata
 120              		.align	2
 121              	.L8:
 122 0000 12000000 		.word	.L7
 123 0004 20000000 		.word	.L9
 124 0008 30000000 		.word	.L10
 125 000c 40000000 		.word	.L11
 126 0010 50000000 		.word	.L12
 127 0014 60000000 		.word	.L13
 128 0018 6C000000 		.word	.L14
 129 001c 78000000 		.word	.L15
 130 0020 84000000 		.word	.L16
 131 0024 92000000 		.word	.L17
 132 0028 A2000000 		.word	.L18
ARM GAS  C:\Users\Keith\AppData\Local\Temp\cc1DQM7j.s 			page 7


 133 002c B2000000 		.word	.L19
 134 0030 C2000000 		.word	.L20
 135 0034 D2000000 		.word	.L21
 136 0038 E0000000 		.word	.L22
 137 003c EC000000 		.word	.L23
 138 0040 F8000000 		.word	.L24
 139 0044 04010000 		.word	.L25
 140 0048 26010000 		.word	.L6
 141 004c 26010000 		.word	.L6
 142 0050 26010000 		.word	.L6
 143 0054 26010000 		.word	.L6
 144 0058 26010000 		.word	.L6
 145 005c 26010000 		.word	.L6
 146 0060 10010000 		.word	.L26
 147 0064 1C010000 		.word	.L27
 148              		.section	.text.ExecuteCommand
 149              	.L7:
 107:main.c        ****             break; //1x7
 150              		.loc 1 107 0
 151 0012 0A00     		movs	r2, r1
 152 0014 8921     		movs	r1, #137
 153              	.LVL16:
 154 0016 8900     		lsls	r1, r1, #2
 155 0018 4548     		ldr	r0, .L28+4
 156 001a FFF7FEFF 		bl	setLED
 157              	.LVL17:
 108:main.c        ****             
 158              		.loc 1 108 0
 159 001e 82E0     		b	.L6
 160              	.LVL18:
 161              	.L9:
 111:main.c        ****             break;
 162              		.loc 1 111 0
 163 0020 0A00     		movs	r2, r1
 164 0022 D421     		movs	r1, #212
 165              	.LVL19:
 166 0024 FF31     		adds	r1, r1, #255
 167 0026 BA20     		movs	r0, #186
 168 0028 FF30     		adds	r0, r0, #255
 169 002a FFF7FEFF 		bl	setLED
 170              	.LVL20:
 112:main.c        **** 
 171              		.loc 1 112 0
 172 002e 7AE0     		b	.L6
 173              	.LVL21:
 174              	.L10:
 115:main.c        ****             break; //1x6
 175              		.loc 1 115 0
 176 0030 0A00     		movs	r2, r1
 177 0032 DC21     		movs	r1, #220
 178              	.LVL22:
 179 0034 4900     		lsls	r1, r1, #1
 180 0036 CF20     		movs	r0, #207
 181 0038 4000     		lsls	r0, r0, #1
 182 003a FFF7FEFF 		bl	setLED
 183              	.LVL23:
 116:main.c        ****         
ARM GAS  C:\Users\Keith\AppData\Local\Temp\cc1DQM7j.s 			page 8


 184              		.loc 1 116 0
 185 003e 72E0     		b	.L6
 186              	.LVL24:
 187              	.L11:
 119:main.c        ****             break; //0x6
 188              		.loc 1 119 0
 189 0040 0A00     		movs	r2, r1
 190 0042 B321     		movs	r1, #179
 191              	.LVL25:
 192 0044 4900     		lsls	r1, r1, #1
 193 0046 A620     		movs	r0, #166
 194 0048 4000     		lsls	r0, r0, #1
 195 004a FFF7FEFF 		bl	setLED
 196              	.LVL26:
 120:main.c        ****             
 197              		.loc 1 120 0
 198 004e 6AE0     		b	.L6
 199              	.LVL27:
 200              	.L12:
 123:main.c        ****             break; //0x5
 201              		.loc 1 123 0
 202 0050 0A00     		movs	r2, r1
 203 0052 4C21     		movs	r1, #76
 204              	.LVL28:
 205 0054 FF31     		adds	r1, r1, #255
 206 0056 3220     		movs	r0, #50
 207 0058 FF30     		adds	r0, r0, #255
 208 005a FFF7FEFF 		bl	setLED
 209              	.LVL29:
 124:main.c        ****             
 210              		.loc 1 124 0
 211 005e 62E0     		b	.L6
 212              	.LVL30:
 213              	.L13:
 127:main.c        ****             break; //1x5
 214              		.loc 1 127 0
 215 0060 0A00     		movs	r2, r1
 216 0062 F821     		movs	r1, #248
 217              	.LVL31:
 218 0064 DE20     		movs	r0, #222
 219 0066 FFF7FEFF 		bl	setLED
 220              	.LVL32:
 128:main.c        ****             
 221              		.loc 1 128 0
 222 006a 5CE0     		b	.L6
 223              	.LVL33:
 224              	.L14:
 131:main.c        ****             break; // 1x4
 225              		.loc 1 131 0
 226 006c 0A00     		movs	r2, r1
 227 006e DD21     		movs	r1, #221
 228              	.LVL34:
 229 0070 C120     		movs	r0, #193
 230 0072 FFF7FEFF 		bl	setLED
 231              	.LVL35:
 132:main.c        ****             
 232              		.loc 1 132 0
ARM GAS  C:\Users\Keith\AppData\Local\Temp\cc1DQM7j.s 			page 9


 233 0076 56E0     		b	.L6
 234              	.LVL36:
 235              	.L15:
 135:main.c        ****             break; // 0x4
 236              		.loc 1 135 0
 237 0078 0A00     		movs	r2, r1
 238 007a 8621     		movs	r1, #134
 239              	.LVL37:
 240 007c 6A20     		movs	r0, #106
 241 007e FFF7FEFF 		bl	setLED
 242              	.LVL38:
 136:main.c        ****             
 243              		.loc 1 136 0
 244 0082 50E0     		b	.L6
 245              	.LVL39:
 246              	.L16:
 139:main.c        ****             break; // 0x3
 247              		.loc 1 139 0
 248 0084 0A00     		movs	r2, r1
 249 0086 2B49     		ldr	r1, .L28+8
 250              	.LVL40:
 251 0088 F820     		movs	r0, #248
 252 008a 4000     		lsls	r0, r0, #1
 253 008c FFF7FEFF 		bl	setLED
 254              	.LVL41:
 140:main.c        **** 
 255              		.loc 1 140 0
 256 0090 49E0     		b	.L6
 257              	.LVL42:
 258              	.L17:
 143:main.c        ****             break; // 1x3
 259              		.loc 1 143 0
 260 0092 0A00     		movs	r2, r1
 261 0094 F021     		movs	r1, #240
 262              	.LVL43:
 263 0096 FF31     		adds	r1, r1, #255
 264 0098 EA20     		movs	r0, #234
 265 009a 4000     		lsls	r0, r0, #1
 266 009c FFF7FEFF 		bl	setLED
 267              	.LVL44:
 144:main.c        ****             
 268              		.loc 1 144 0
 269 00a0 41E0     		b	.L6
 270              	.LVL45:
 271              	.L18:
 147:main.c        ****             break; // 1x2
 272              		.loc 1 147 0
 273 00a2 0A00     		movs	r2, r1
 274 00a4 9E21     		movs	r1, #158
 275              	.LVL46:
 276 00a6 FF31     		adds	r1, r1, #255
 277 00a8 8420     		movs	r0, #132
 278 00aa FF30     		adds	r0, r0, #255
 279 00ac FFF7FEFF 		bl	setLED
 280              	.LVL47:
 148:main.c        ****             
 281              		.loc 1 148 0
ARM GAS  C:\Users\Keith\AppData\Local\Temp\cc1DQM7j.s 			page 10


 282 00b0 39E0     		b	.L6
 283              	.LVL48:
 284              	.L19:
 151:main.c        ****             break; // 0x2
 285              		.loc 1 151 0
 286 00b2 0A00     		movs	r2, r1
 287 00b4 C121     		movs	r1, #193
 288              	.LVL49:
 289 00b6 4900     		lsls	r1, r1, #1
 290 00b8 8C20     		movs	r0, #140
 291 00ba FF30     		adds	r0, r0, #255
 292 00bc FFF7FEFF 		bl	setLED
 293              	.LVL50:
 152:main.c        ****             
 294              		.loc 1 152 0
 295 00c0 31E0     		b	.L6
 296              	.LVL51:
 297              	.L20:
 155:main.c        ****             break; //0x1
 298              		.loc 1 155 0
 299 00c2 0A00     		movs	r2, r1
 300 00c4 9821     		movs	r1, #152
 301              	.LVL52:
 302 00c6 4900     		lsls	r1, r1, #1
 303 00c8 1620     		movs	r0, #22
 304 00ca FF30     		adds	r0, r0, #255
 305 00cc FFF7FEFF 		bl	setLED
 306              	.LVL53:
 156:main.c        ****         
 307              		.loc 1 156 0
 308 00d0 29E0     		b	.L6
 309              	.LVL54:
 310              	.L21:
 159:main.c        ****             break; // 1x1
 311              		.loc 1 159 0
 312 00d2 0A00     		movs	r2, r1
 313 00d4 8A21     		movs	r1, #138
 314              	.LVL55:
 315 00d6 4900     		lsls	r1, r1, #1
 316 00d8 F920     		movs	r0, #249
 317 00da FFF7FEFF 		bl	setLED
 318              	.LVL56:
 160:main.c        ****             
 319              		.loc 1 160 0
 320 00de 22E0     		b	.L6
 321              	.LVL57:
 322              	.L22:
 163:main.c        ****             break; // 1x0
 323              		.loc 1 163 0
 324 00e0 0A00     		movs	r2, r1
 325 00e2 C021     		movs	r1, #192
 326              	.LVL58:
 327 00e4 A420     		movs	r0, #164
 328 00e6 FFF7FEFF 		bl	setLED
 329              	.LVL59:
 164:main.c        ****             
 330              		.loc 1 164 0
ARM GAS  C:\Users\Keith\AppData\Local\Temp\cc1DQM7j.s 			page 11


 331 00ea 1CE0     		b	.L6
 332              	.LVL60:
 333              	.L23:
 167:main.c        ****             break; // 0x0
 334              		.loc 1 167 0
 335 00ec 0A00     		movs	r2, r1
 336 00ee A321     		movs	r1, #163
 337              	.LVL61:
 338 00f0 8720     		movs	r0, #135
 339 00f2 FFF7FEFF 		bl	setLED
 340              	.LVL62:
 168:main.c        ****             
 341              		.loc 1 168 0
 342 00f6 16E0     		b	.L6
 343              	.LVL63:
 344              	.L24:
 171:main.c        ****             break;
 345              		.loc 1 171 0
 346 00f8 0A00     		movs	r2, r1
 347 00fa 6921     		movs	r1, #105
 348              	.LVL64:
 349 00fc 5020     		movs	r0, #80
 350 00fe FFF7FEFF 		bl	setLED
 351              	.LVL65:
 172:main.c        ****             
 352              		.loc 1 172 0
 353 0102 10E0     		b	.L6
 354              	.LVL66:
 355              	.L25:
 175:main.c        ****             break;
 356              		.loc 1 175 0
 357 0104 0A00     		movs	r2, r1
 358 0106 1B21     		movs	r1, #27
 359              	.LVL67:
 360 0108 0020     		movs	r0, #0
 361 010a FFF7FEFF 		bl	setLED
 362              	.LVL68:
 176:main.c        ****             
 363              		.loc 1 176 0
 364 010e 0AE0     		b	.L6
 365              	.LVL69:
 366              	.L26:
 179:main.c        ****             break;
 367              		.loc 1 179 0
 368 0110 0A00     		movs	r2, r1
 369 0112 4F21     		movs	r1, #79
 370              	.LVL70:
 371 0114 3620     		movs	r0, #54
 372 0116 FFF7FEFF 		bl	setLED
 373              	.LVL71:
 180:main.c        ****         case 41:
 374              		.loc 1 180 0
 375 011a 04E0     		b	.L6
 376              	.LVL72:
 377              	.L27:
 182:main.c        ****             break;
 378              		.loc 1 182 0
ARM GAS  C:\Users\Keith\AppData\Local\Temp\cc1DQM7j.s 			page 12


 379 011c 0A00     		movs	r2, r1
 380 011e 3521     		movs	r1, #53
 381              	.LVL73:
 382 0120 1C20     		movs	r0, #28
 383 0122 FFF7FEFF 		bl	setLED
 384              	.LVL74:
 385              	.L6:
 191:main.c        **** 
 386              		.loc 1 191 0
 387 0126 0020     		movs	r0, #0
 388              		@ sp needed
 389 0128 10BD     		pop	{r4, pc}
 390              	.L29:
 391 012a C046     		.align	2
 392              	.L28:
 393 012c 00000000 		.word	.L8
 394 0130 0A020000 		.word	522
 395 0134 09020000 		.word	521
 396              		.cfi_endproc
 397              	.LFE35:
 398              		.size	ExecuteCommand, .-ExecuteCommand
 399              		.section	.text.setBG,"ax",%progbits
 400              		.align	2
 401              		.global	setBG
 402              		.code	16
 403              		.thumb_func
 404              		.type	setBG, %function
 405              	setBG:
 406              	.LFB37:
 207:main.c        **** 
 208:main.c        **** void setBG(uint32 firstLED, uint32 lastLED) {
 407              		.loc 1 208 0
 408              		.cfi_startproc
 409              		@ args = 0, pretend = 0, frame = 0
 410              		@ frame_needed = 0, uses_anonymous_args = 0
 411              	.LVL75:
 412 0000 70B5     		push	{r4, r5, r6, lr}
 413              		.cfi_def_cfa_offset 16
 414              		.cfi_offset 4, -16
 415              		.cfi_offset 5, -12
 416              		.cfi_offset 6, -8
 417              		.cfi_offset 14, -4
 418 0002 0400     		movs	r4, r0
 419 0004 0D00     		movs	r5, r1
 209:main.c        **** uint32 led;
 210:main.c        ****     
 211:main.c        ****     StripLights_Dim(4);
 420              		.loc 1 211 0
 421 0006 0420     		movs	r0, #4
 422              	.LVL76:
 423 0008 FFF7FEFF 		bl	StripLights_Dim
 424              	.LVL77:
 212:main.c        ****     
 213:main.c        ****     for(led = firstLED; led <= lastLED; led++) {
 425              		.loc 1 213 0
 426 000c 0FE0     		b	.L31
 427              	.LVL78:
ARM GAS  C:\Users\Keith\AppData\Local\Temp\cc1DQM7j.s 			page 13


 428              	.L33:
 214:main.c        ****         StripLights_Pixel(led, 0, StripLights_OFF);
 429              		.loc 1 214 0
 430 000e 1820     		movs	r0, #24
 431 0010 FFF7FEFF 		bl	StripLights_getColor
 432              	.LVL79:
 433 0014 0200     		movs	r2, r0
 434 0016 0021     		movs	r1, #0
 435 0018 2000     		movs	r0, r4
 436 001a FFF7FEFF 		bl	StripLights_Pixel
 437              	.LVL80:
 438              	.L32:
 215:main.c        ****         while(StripLights_Ready() == 0);
 439              		.loc 1 215 0 discriminator 1
 440 001e FFF7FEFF 		bl	StripLights_Ready
 441              	.LVL81:
 442 0022 0028     		cmp	r0, #0
 443 0024 FBD0     		beq	.L32
 216:main.c        ****         CyDelay(10);
 444              		.loc 1 216 0 discriminator 2
 445 0026 0A20     		movs	r0, #10
 446 0028 FFF7FEFF 		bl	CyDelay
 447              	.LVL82:
 213:main.c        ****         StripLights_Pixel(led, 0, StripLights_OFF);
 448              		.loc 1 213 0 discriminator 2
 449 002c 0134     		adds	r4, r4, #1
 450              	.LVL83:
 451              	.L31:
 213:main.c        ****         StripLights_Pixel(led, 0, StripLights_OFF);
 452              		.loc 1 213 0 is_stmt 0 discriminator 1
 453 002e AC42     		cmp	r4, r5
 454 0030 EDD9     		bls	.L33
 217:main.c        ****         
 218:main.c        ****     }
 219:main.c        ****     StripLights_Trigger(1);
 455              		.loc 1 219 0 is_stmt 1
 456 0032 0120     		movs	r0, #1
 457 0034 FFF7FEFF 		bl	StripLights_Trigger
 458              	.LVL84:
 220:main.c        ****     CyDelay(100);
 459              		.loc 1 220 0
 460 0038 6420     		movs	r0, #100
 461 003a FFF7FEFF 		bl	CyDelay
 462              	.LVL85:
 221:main.c        **** }
 463              		.loc 1 221 0
 464              		@ sp needed
 465              	.LVL86:
 466              	.LVL87:
 467 003e 70BD     		pop	{r4, r5, r6, pc}
 468              		.cfi_endproc
 469              	.LFE37:
 470              		.size	setBG, .-setBG
 471              		.section	.text.main,"ax",%progbits
 472              		.align	2
 473              		.global	main
 474              		.code	16
ARM GAS  C:\Users\Keith\AppData\Local\Temp\cc1DQM7j.s 			page 14


 475              		.thumb_func
 476              		.type	main, %function
 477              	main:
 478              	.LFB32:
  23:main.c        ****     uint32 cmd = 16;
 479              		.loc 1 23 0
 480              		.cfi_startproc
 481              		@ args = 0, pretend = 0, frame = 0
 482              		@ frame_needed = 0, uses_anonymous_args = 0
 483 0000 70B5     		push	{r4, r5, r6, lr}
 484              		.cfi_def_cfa_offset 16
 485              		.cfi_offset 4, -16
 486              		.cfi_offset 5, -12
 487              		.cfi_offset 6, -8
 488              		.cfi_offset 14, -4
 489              	.LVL88:
  26:main.c        ****     StripLights_Start();
 490              		.loc 1 26 0
 491              		.syntax divided
 492              	@ 26 "main.c" 1
 493 0002 62B6     		CPSIE   i
 494              	@ 0 "" 2
  27:main.c        ****     SPIS_Start();
 495              		.loc 1 27 0
 496              		.thumb
 497              		.syntax unified
 498 0004 FFF7FEFF 		bl	StripLights_Start
 499              	.LVL89:
  28:main.c        **** 
 500              		.loc 1 28 0
 501 0008 FFF7FEFF 		bl	SPIS_Start
 502              	.LVL90:
  32:main.c        ****     
 503              		.loc 1 32 0
 504 000c 0B49     		ldr	r1, .L41
 505 000e 0020     		movs	r0, #0
 506 0010 FFF7FEFF 		bl	setBG
 507              	.LVL91:
  34:main.c        ****     
 508              		.loc 1 34 0
 509 0014 3725     		movs	r5, #55
  24:main.c        ****     uint32 status;
 510              		.loc 1 24 0
 511 0016 1024     		movs	r4, #16
 512 0018 00E0     		b	.L35
 513              	.LVL92:
 514              	.L40:
  53:main.c        ****         }
 515              		.loc 1 53 0
 516 001a 0A25     		movs	r5, #10
 517              	.LVL93:
 518              	.L35:
  43:main.c        ****         
 519              		.loc 1 43 0
 520 001c 2800     		movs	r0, r5
 521 001e 1830     		adds	r0, r0, #24
 522 0020 FFF7FEFF 		bl	StripLights_getColor
ARM GAS  C:\Users\Keith\AppData\Local\Temp\cc1DQM7j.s 			page 15


 523              	.LVL94:
 524 0024 0100     		movs	r1, r0
 525 0026 2000     		movs	r0, r4
 526 0028 FFF7FEFF 		bl	ExecuteCommand
 527              	.LVL95:
  46:main.c        ****         if(cmd > 42u) {
 528              		.loc 1 46 0
 529 002c 0134     		adds	r4, r4, #1
 530              	.LVL96:
  47:main.c        ****             cmd = 16u;
 531              		.loc 1 47 0
 532 002e 2A2C     		cmp	r4, #42
 533 0030 00D9     		bls	.L36
  48:main.c        ****         }
 534              		.loc 1 48 0
 535 0032 1024     		movs	r4, #16
 536              	.LVL97:
 537              	.L36:
  51:main.c        ****         if(i >= 100) {
 538              		.loc 1 51 0
 539 0034 0135     		adds	r5, r5, #1
 540              	.LVL98:
  52:main.c        ****             i = 10;
 541              		.loc 1 52 0
 542 0036 632D     		cmp	r5, #99
 543 0038 EFDC     		bgt	.L40
 544 003a EFE7     		b	.L35
 545              	.L42:
 546              		.align	2
 547              	.L41:
 548 003c 26020000 		.word	550
 549              		.cfi_endproc
 550              	.LFE32:
 551              		.size	main, .-main
 552              		.section	.text.rainbow,"ax",%progbits
 553              		.align	2
 554              		.global	rainbow
 555              		.code	16
 556              		.thumb_func
 557              		.type	rainbow, %function
 558              	rainbow:
 559              	.LFB38:
 222:main.c        **** 
 223:main.c        **** 
 224:main.c        **** void rainbow(uint32 startingColor, uint32 firstLED, uint32 lastLED) {
 560              		.loc 1 224 0
 561              		.cfi_startproc
 562              		@ args = 0, pretend = 0, frame = 0
 563              		@ frame_needed = 0, uses_anonymous_args = 0
 564              	.LVL99:
 565 0000 F8B5     		push	{r3, r4, r5, r6, r7, lr}
 566              		.cfi_def_cfa_offset 24
 567              		.cfi_offset 3, -24
 568              		.cfi_offset 4, -20
 569              		.cfi_offset 5, -16
 570              		.cfi_offset 6, -12
 571              		.cfi_offset 7, -8
ARM GAS  C:\Users\Keith\AppData\Local\Temp\cc1DQM7j.s 			page 16


 572              		.cfi_offset 14, -4
 573 0002 0D00     		movs	r5, r1
 574 0004 1700     		movs	r7, r2
 575              	.LBB2:
 225:main.c        ****     
 226:main.c        ****     for(int i = startingColor; i < 256; i++){
 576              		.loc 1 226 0
 577 0006 0600     		movs	r6, r0
 578              	.LVL100:
 579 0008 1AE0     		b	.L44
 580              	.LVL101:
 581              	.L49:
 582              	.LBB3:
 227:main.c        ****         for(int j = firstLED; j <= lastLED; j++) {
 583              		.loc 1 227 0
 584 000a 2C00     		movs	r4, r5
 585              	.LVL102:
 586 000c 10E0     		b	.L45
 587              	.L47:
 228:main.c        ****             StripLights_Pixel(j, 0, StripLights_getColor(i + StripLights_CWHEEL_SIZE));
 588              		.loc 1 228 0
 589 000e 3000     		movs	r0, r6
 590 0010 1830     		adds	r0, r0, #24
 591 0012 FFF7FEFF 		bl	StripLights_getColor
 592              	.LVL103:
 593 0016 0200     		movs	r2, r0
 594 0018 0021     		movs	r1, #0
 595 001a 2000     		movs	r0, r4
 596 001c FFF7FEFF 		bl	StripLights_Pixel
 597              	.LVL104:
 598              	.L46:
 229:main.c        ****             while(StripLights_Ready() == 0);
 599              		.loc 1 229 0 discriminator 1
 600 0020 FFF7FEFF 		bl	StripLights_Ready
 601              	.LVL105:
 602 0024 0028     		cmp	r0, #0
 603 0026 FBD0     		beq	.L46
 230:main.c        ****             StripLights_Trigger(1);
 604              		.loc 1 230 0 discriminator 2
 605 0028 0120     		movs	r0, #1
 606 002a FFF7FEFF 		bl	StripLights_Trigger
 607              	.LVL106:
 227:main.c        ****             StripLights_Pixel(j, 0, StripLights_getColor(i + StripLights_CWHEEL_SIZE));
 608              		.loc 1 227 0 discriminator 2
 609 002e 0134     		adds	r4, r4, #1
 610              	.LVL107:
 611              	.L45:
 227:main.c        ****             StripLights_Pixel(j, 0, StripLights_getColor(i + StripLights_CWHEEL_SIZE));
 612              		.loc 1 227 0 is_stmt 0 discriminator 1
 613 0030 BC42     		cmp	r4, r7
 614 0032 ECD9     		bls	.L47
 615              	.LBE3:
 231:main.c        ****             
 232:main.c        ****         }
 233:main.c        ****         if (i == 256) {
 616              		.loc 1 233 0 is_stmt 1
 617 0034 8023     		movs	r3, #128
ARM GAS  C:\Users\Keith\AppData\Local\Temp\cc1DQM7j.s 			page 17


 618 0036 5B00     		lsls	r3, r3, #1
 619 0038 9E42     		cmp	r6, r3
 620 003a 00D1     		bne	.L48
 234:main.c        ****             i=0;
 621              		.loc 1 234 0
 622 003c 0026     		movs	r6, #0
 623              	.LVL108:
 624              	.L48:
 226:main.c        ****         for(int j = firstLED; j <= lastLED; j++) {
 625              		.loc 1 226 0 discriminator 2
 626 003e 0136     		adds	r6, r6, #1
 627              	.LVL109:
 628              	.L44:
 226:main.c        ****         for(int j = firstLED; j <= lastLED; j++) {
 629              		.loc 1 226 0 is_stmt 0 discriminator 1
 630 0040 FF2E     		cmp	r6, #255
 631 0042 E2DD     		ble	.L49
 632              	.LBE2:
 235:main.c        ****         }
 236:main.c        ****     }
 237:main.c        **** }
 633              		.loc 1 237 0 is_stmt 1
 634              		@ sp needed
 635              	.LVL110:
 636              	.LVL111:
 637              	.LVL112:
 638 0044 F8BD     		pop	{r3, r4, r5, r6, r7, pc}
 639              		.cfi_endproc
 640              	.LFE38:
 641              		.size	rainbow, .-rainbow
 642 0046 C046     		.section	.text.rainbowCrawl,"ax",%progbits
 643              		.align	2
 644              		.global	rainbowCrawl
 645              		.code	16
 646              		.thumb_func
 647              		.type	rainbowCrawl, %function
 648              	rainbowCrawl:
 649              	.LFB39:
 238:main.c        **** 
 239:main.c        **** void rainbowCrawl(uint32 firstLED, uint32 lastLED) {
 650              		.loc 1 239 0
 651              		.cfi_startproc
 652              		@ args = 0, pretend = 0, frame = 0
 653              		@ frame_needed = 0, uses_anonymous_args = 0
 654              	.LVL113:
 655 0000 70B5     		push	{r4, r5, r6, lr}
 656              		.cfi_def_cfa_offset 16
 657              		.cfi_offset 4, -16
 658              		.cfi_offset 5, -12
 659              		.cfi_offset 6, -8
 660              		.cfi_offset 14, -4
 661 0002 0500     		movs	r5, r0
 662 0004 0E00     		movs	r6, r1
 663              	.LVL114:
 664              	.LBB4:
 240:main.c        ****     for(uint32 i = 0, j = firstLED; i < 27 && j < lastLED; i++, j++){
 665              		.loc 1 240 0
ARM GAS  C:\Users\Keith\AppData\Local\Temp\cc1DQM7j.s 			page 18


 666 0006 0024     		movs	r4, #0
 667 0008 1CE0     		b	.L52
 668              	.LVL115:
 669              	.L56:
 241:main.c        ****             StripLights_Dim(2);
 670              		.loc 1 241 0
 671 000a 0220     		movs	r0, #2
 672 000c FFF7FEFF 		bl	StripLights_Dim
 673              	.LVL116:
 242:main.c        ****             StripLights_Pixel(j, 0, StripLights_getColor(i));
 674              		.loc 1 242 0
 675 0010 2000     		movs	r0, r4
 676 0012 FFF7FEFF 		bl	StripLights_getColor
 677              	.LVL117:
 678 0016 0200     		movs	r2, r0
 679 0018 0021     		movs	r1, #0
 680 001a 2800     		movs	r0, r5
 681 001c FFF7FEFF 		bl	StripLights_Pixel
 682              	.LVL118:
 683              	.L53:
 243:main.c        ****             while(StripLights_Ready() == 0);
 684              		.loc 1 243 0 discriminator 1
 685 0020 FFF7FEFF 		bl	StripLights_Ready
 686              	.LVL119:
 687 0024 0028     		cmp	r0, #0
 688 0026 FBD0     		beq	.L53
 244:main.c        ****             CyDelay(20);
 689              		.loc 1 244 0
 690 0028 1420     		movs	r0, #20
 691 002a FFF7FEFF 		bl	CyDelay
 692              	.LVL120:
 245:main.c        ****             if(i >= 26) {
 693              		.loc 1 245 0
 694 002e 192C     		cmp	r4, #25
 695 0030 00D9     		bls	.L54
 246:main.c        ****                 i = 0;
 696              		.loc 1 246 0
 697 0032 0024     		movs	r4, #0
 698              	.LVL121:
 699              	.L54:
 247:main.c        ****             }
 248:main.c        ****         StripLights_Trigger(1);
 700              		.loc 1 248 0 discriminator 2
 701 0034 0120     		movs	r0, #1
 702 0036 FFF7FEFF 		bl	StripLights_Trigger
 703              	.LVL122:
 249:main.c        ****         CyDelay(20);    
 704              		.loc 1 249 0 discriminator 2
 705 003a 1420     		movs	r0, #20
 706 003c FFF7FEFF 		bl	CyDelay
 707              	.LVL123:
 240:main.c        ****             StripLights_Dim(2);
 708              		.loc 1 240 0 discriminator 2
 709 0040 0134     		adds	r4, r4, #1
 710              	.LVL124:
 711 0042 0135     		adds	r5, r5, #1
 712              	.LVL125:
ARM GAS  C:\Users\Keith\AppData\Local\Temp\cc1DQM7j.s 			page 19


 713              	.L52:
 240:main.c        ****             StripLights_Dim(2);
 714              		.loc 1 240 0 is_stmt 0 discriminator 1
 715 0044 1A2C     		cmp	r4, #26
 716 0046 01D8     		bhi	.L51
 240:main.c        ****             StripLights_Dim(2);
 717              		.loc 1 240 0 discriminator 3
 718 0048 B542     		cmp	r5, r6
 719 004a DED3     		bcc	.L56
 720              	.L51:
 721              	.LBE4:
 250:main.c        ****     }
 251:main.c        ****     //CyDelay(100);
 252:main.c        **** 
 253:main.c        **** }
 722              		.loc 1 253 0 is_stmt 1
 723              		@ sp needed
 724              	.LVL126:
 725              	.LVL127:
 726              	.LVL128:
 727 004c 70BD     		pop	{r4, r5, r6, pc}
 728              		.cfi_endproc
 729              	.LFE39:
 730              		.size	rainbowCrawl, .-rainbowCrawl
 731              		.global	dummyBuffer
 732 004e C046     		.section	.rodata
 733              		.align	2
 734              		.type	dummyBuffer, %object
 735              		.size	dummyBuffer, 3
 736              	dummyBuffer:
 737 0068 FF       		.byte	-1
 738 0069 FF       		.byte	-1
 739 006a FF       		.byte	-1
 740              		.text
 741              	.Letext0:
 742              		.file 2 "Generated_Source\\PSoC4/cytypes.h"
 743              		.file 3 "Generated_Source\\PSoC4/StripLights.h"
 744              		.file 4 "Generated_Source\\PSoC4/CyLib.h"
 745              		.file 5 "Generated_Source\\PSoC4/SPIS.h"