ARM GAS  C:\Users\Yu\AppData\Local\Temp\ccbCRIzo.s 			page 1


   1              		.syntax unified
   2              		.cpu cortex-m0
   3              		.fpu softvfp
   4              		.eabi_attribute 20, 1
   5              		.eabi_attribute 21, 1
   6              		.eabi_attribute 23, 3
   7              		.eabi_attribute 24, 1
   8              		.eabi_attribute 25, 1
   9              		.eabi_attribute 26, 1
  10              		.eabi_attribute 30, 1
  11              		.eabi_attribute 34, 0
  12              		.eabi_attribute 18, 4
  13              		.thumb
  14              		.syntax unified
  15              		.file	"main.c"
  16              		.text
  17              	.Ltext0:
  18              		.cfi_sections	.debug_frame
  19              		.global	__aeabi_uidiv
  20              		.global	__aeabi_uidivmod
  21              		.section	.text.SlowColorBlend,"ax",%progbits
  22              		.align	2
  23              		.global	SlowColorBlend
  24              		.code	16
  25              		.thumb_func
  26              		.type	SlowColorBlend, %function
  27              	SlowColorBlend:
  28              	.LFB33:
  29              		.file 1 "main.c"
   1:main.c        **** /* ========================================
   2:main.c        ****  *
   3:main.c        ****  * EX2_String
   4:main.c        ****  *
   5:main.c        ****  * A simple function to cycle the color table
   6:main.c        ****  * through the string.
   7:main.c        ****  *
   8:main.c        ****  * ========================================
   9:main.c        **** */
  10:main.c        **** #include "project.h"
  11:main.c        **** 
  12:main.c        **** void SlowColorBlend(uint32 delay, uint32 time);
  13:main.c        **** 
  14:main.c        **** int main(void)
  15:main.c        **** {
  16:main.c        ****     CyGlobalIntEnable; /* Enable global interrupts. */
  17:main.c        ****     StripLights_Start();
  18:main.c        ****     
  19:main.c        ****     
  20:main.c        **** 
  21:main.c        ****     /* Place your initialization/startup code here (e.g. MyInst_Start()) */
  22:main.c        **** 
  23:main.c        ****     for(;;)
  24:main.c        ****     {
  25:main.c        ****         SlowColorBlend(0, 10000);
  26:main.c        ****        
  27:main.c        ****     }
  28:main.c        **** }
ARM GAS  C:\Users\Yu\AppData\Local\Temp\ccbCRIzo.s 			page 2


  29:main.c        **** 
  30:main.c        **** /************************************************
  31:main.c        ****  *                    SlowColorBlend()
  32:main.c        ****  *
  33:main.c        ****  *  Slowly migate all the LEDs through the color
  34:main.c        ****  *  table.
  35:main.c        ****  *
  36:main.c        ****  ************************************************/
  37:main.c        **** void SlowColorBlend(uint32 delay, uint32 time)
  38:main.c        **** {
  30              		.loc 1 38 0
  31              		.cfi_startproc
  32              		@ args = 0, pretend = 0, frame = 8
  33              		@ frame_needed = 0, uses_anonymous_args = 0
  34              	.LVL0:
  35 0000 F0B5     		push	{r4, r5, r6, r7, lr}
  36              		.cfi_def_cfa_offset 20
  37              		.cfi_offset 4, -20
  38              		.cfi_offset 5, -16
  39              		.cfi_offset 6, -12
  40              		.cfi_offset 7, -8
  41              		.cfi_offset 14, -4
  42 0002 4746     		mov	r7, r8
  43 0004 80B4     		push	{r7}
  44              		.cfi_def_cfa_offset 24
  45              		.cfi_offset 8, -24
  46 0006 82B0     		sub	sp, sp, #8
  47              		.cfi_def_cfa_offset 32
  48 0008 0190     		str	r0, [sp, #4]
  49              	.LVL1:
  39:main.c        ****     uint32 timeCnt = 0; 
  40:main.c        ****     uint32 led = 0;
  41:main.c        ****     uint32 x = 0;
  42:main.c        ****     uint32 pct = 0;
  43:main.c        ****     uint32 fromColor, toColor, color;
  44:main.c        ****     extern const uint32 StripLights_CLUT[ ];
  45:main.c        **** 
  46:main.c        ****     StripLights_Dim(0); 
  50              		.loc 1 46 0
  51 000a 0020     		movs	r0, #0
  52              	.LVL2:
  53 000c FFF7FEFF 		bl	StripLights_Dim
  54              	.LVL3:
  41:main.c        ****     uint32 pct = 0;
  55              		.loc 1 41 0
  56 0010 0023     		movs	r3, #0
  57 0012 9846     		mov	r8, r3
  58              	.LVL4:
  59              	.L6:
  47:main.c        **** 
  48:main.c        ****     for(;;)
  49:main.c        ****     {   
  50:main.c        ****         while(1)
  51:main.c        ****         {
  52:main.c        ****            
  53:main.c        ****             for(pct = 0; pct < 100; pct += 4)
  60              		.loc 1 53 0
ARM GAS  C:\Users\Yu\AppData\Local\Temp\ccbCRIzo.s 			page 3


  61 0014 0023     		movs	r3, #0
  62 0016 0093     		str	r3, [sp]
  63 0018 31E0     		b	.L2
  64              	.LVL5:
  65              	.L3:
  54:main.c        ****             {
  55:main.c        ****                 for(led = 0; led <= StripLights_MAX_X; led++)
  56:main.c        ****                 {
  57:main.c        ****  
  58:main.c        ****                     fromColor =  StripLights_CLUT[(x + 0 + ((led * StripLights_COLOR_WHEEL_SIZE)/St
  66              		.loc 1 58 0 discriminator 3
  67 001a 7B00     		lsls	r3, r7, #1
  68 001c DB19     		adds	r3, r3, r7
  69 001e D800     		lsls	r0, r3, #3
  70 0020 0E21     		movs	r1, #14
  71 0022 FFF7FEFF 		bl	__aeabi_uidiv
  72              	.LVL6:
  73 0026 4044     		add	r0, r0, r8
  74 0028 0400     		movs	r4, r0
  75 002a 1821     		movs	r1, #24
  76 002c FFF7FEFF 		bl	__aeabi_uidivmod
  77              	.LVL7:
  78 0030 164E     		ldr	r6, .L8
  79 0032 8900     		lsls	r1, r1, #2
  80 0034 8D59     		ldr	r5, [r1, r6]
  81              	.LVL8:
  59:main.c        ****                     toColor =  StripLights_CLUT[(x + 1 + ((led * StripLights_COLOR_WHEEL_SIZE)/Stri
  82              		.loc 1 59 0 discriminator 3
  83 0036 601C     		adds	r0, r4, #1
  84 0038 1821     		movs	r1, #24
  85 003a FFF7FEFF 		bl	__aeabi_uidivmod
  86              	.LVL9:
  87 003e 8900     		lsls	r1, r1, #2
  88 0040 8959     		ldr	r1, [r1, r6]
  89              	.LVL10:
  60:main.c        ****                     
  61:main.c        ****                     color = StripLights_RgbBlend(fromColor, toColor, pct);                  
  90              		.loc 1 61 0 discriminator 3
  91 0042 009A     		ldr	r2, [sp]
  92 0044 2800     		movs	r0, r5
  93 0046 FFF7FEFF 		bl	StripLights_RgbBlend
  94              	.LVL11:
  95 004a 0200     		movs	r2, r0
  96              	.LVL12:
  62:main.c        ****                     StripLights_Pixel(led, 0, color );
  97              		.loc 1 62 0 discriminator 3
  98 004c 0021     		movs	r1, #0
  99 004e 3800     		movs	r0, r7
 100              	.LVL13:
 101 0050 FFF7FEFF 		bl	StripLights_Pixel
 102              	.LVL14:
  55:main.c        ****                 {
 103              		.loc 1 55 0 discriminator 3
 104 0054 0137     		adds	r7, r7, #1
 105              	.LVL15:
 106 0056 00E0     		b	.L5
 107              	.LVL16:
ARM GAS  C:\Users\Yu\AppData\Local\Temp\ccbCRIzo.s 			page 4


 108              	.L7:
 109 0058 0027     		movs	r7, #0
 110              	.LVL17:
 111              	.L5:
  55:main.c        ****                 {
 112              		.loc 1 55 0 is_stmt 0 discriminator 1
 113 005a 0D2F     		cmp	r7, #13
 114 005c DDD9     		bls	.L3
 115              	.L4:
  63:main.c        ****                 }
  64:main.c        ****                 
  65:main.c        ****                  while( StripLights_Ready() == 0);
 116              		.loc 1 65 0 is_stmt 1 discriminator 1
 117 005e FFF7FEFF 		bl	StripLights_Ready
 118              	.LVL18:
 119 0062 0028     		cmp	r0, #0
 120 0064 FBD0     		beq	.L4
  66:main.c        **** 	
  67:main.c        **** 	            StripLights_Dim(2);
 121              		.loc 1 67 0 discriminator 2
 122 0066 0220     		movs	r0, #2
 123 0068 FFF7FEFF 		bl	StripLights_Dim
 124              	.LVL19:
  68:main.c        ****                 StripLights_Trigger(1);
 125              		.loc 1 68 0 discriminator 2
 126 006c 0120     		movs	r0, #1
 127 006e FFF7FEFF 		bl	StripLights_Trigger
 128              	.LVL20:
  69:main.c        ****                 
  70:main.c        ****                 CyDelay(delay);
 129              		.loc 1 70 0 discriminator 2
 130 0072 0198     		ldr	r0, [sp, #4]
 131 0074 FFF7FEFF 		bl	CyDelay
 132              	.LVL21:
  53:main.c        ****             {
 133              		.loc 1 53 0 discriminator 2
 134 0078 009B     		ldr	r3, [sp]
 135 007a 0433     		adds	r3, r3, #4
 136 007c 0093     		str	r3, [sp]
 137              	.LVL22:
 138              	.L2:
  53:main.c        ****             {
 139              		.loc 1 53 0 is_stmt 0 discriminator 1
 140 007e 009B     		ldr	r3, [sp]
 141 0080 632B     		cmp	r3, #99
 142 0082 E9D9     		bls	.L7
  71:main.c        **** 
  72:main.c        ****             }
  73:main.c        ****             x++;  // Advance through color wheel
 143              		.loc 1 73 0 is_stmt 1
 144 0084 0123     		movs	r3, #1
 145 0086 9C46     		mov	ip, r3
 146 0088 E044     		add	r8, r8, ip
 147              	.LVL23:
  74:main.c        ****         }
 148              		.loc 1 74 0
 149 008a C3E7     		b	.L6
ARM GAS  C:\Users\Yu\AppData\Local\Temp\ccbCRIzo.s 			page 5


 150              	.L9:
 151              		.align	2
 152              	.L8:
 153 008c 00000000 		.word	StripLights_CLUT
 154              		.cfi_endproc
 155              	.LFE33:
 156              		.size	SlowColorBlend, .-SlowColorBlend
 157              		.section	.text.main,"ax",%progbits
 158              		.align	2
 159              		.global	main
 160              		.code	16
 161              		.thumb_func
 162              		.type	main, %function
 163              	main:
 164              	.LFB32:
  15:main.c        ****     CyGlobalIntEnable; /* Enable global interrupts. */
 165              		.loc 1 15 0
 166              		.cfi_startproc
 167              		@ Volatile: function does not return.
 168              		@ args = 0, pretend = 0, frame = 0
 169              		@ frame_needed = 0, uses_anonymous_args = 0
 170 0000 10B5     		push	{r4, lr}
 171              		.cfi_def_cfa_offset 8
 172              		.cfi_offset 4, -8
 173              		.cfi_offset 14, -4
  16:main.c        ****     StripLights_Start();
 174              		.loc 1 16 0
 175              		.syntax divided
 176              	@ 16 "main.c" 1
 177 0002 62B6     		CPSIE   i
 178              	@ 0 "" 2
  17:main.c        ****     
 179              		.loc 1 17 0
 180              		.thumb
 181              		.syntax unified
 182 0004 FFF7FEFF 		bl	StripLights_Start
 183              	.LVL24:
  25:main.c        ****        
 184              		.loc 1 25 0
 185 0008 0149     		ldr	r1, .L11
 186 000a 0020     		movs	r0, #0
 187 000c FFF7FEFF 		bl	SlowColorBlend
 188              	.LVL25:
 189              	.L12:
 190              		.align	2
 191              	.L11:
 192 0010 10270000 		.word	10000
 193              		.cfi_endproc
 194              	.LFE32:
 195              		.size	main, .-main
 196              		.text
 197              	.Letext0:
 198              		.file 2 "Generated_Source\\PSoC4/cytypes.h"
 199              		.file 3 "Generated_Source\\PSoC4/StripLights.h"
 200              		.file 4 "Generated_Source\\PSoC4/CyLib.h"