ARM GAS  C:\Users\Keith\AppData\Local\Temp\ccw7ZR9Y.s 			page 1


   1              		.syntax unified
   2              		.cpu cortex-m0
   3              		.fpu softvfp
   4              		.eabi_attribute 20, 1
   5              		.eabi_attribute 21, 1
   6              		.eabi_attribute 23, 3
   7              		.eabi_attribute 24, 1
   8              		.eabi_attribute 25, 1
   9              		.eabi_attribute 26, 1
  10              		.eabi_attribute 30, 1
  11              		.eabi_attribute 34, 0
  12              		.eabi_attribute 18, 4
  13              		.thumb
  14              		.syntax unified
  15              		.file	"main.c"
  16              		.text
  17              	.Ltext0:
  18              		.cfi_sections	.debug_frame
  19              		.section	.text.setLED,"ax",%progbits
  20              		.align	2
  21              		.global	setLED
  22              		.code	16
  23              		.thumb_func
  24              		.type	setLED, %function
  25              	setLED:
  26              	.LFB36:
  27              		.file 1 "main.c"
   1:main.c        **** /* ========================================
   2:main.c        ****  *
   3:main.c        ****  * EX2_String
   4:main.c        ****  *
   5:main.c        ****  * A simple function to cycle the color table
   6:main.c        ****  * through the string.
   7:main.c        ****  *
   8:main.c        ****  * ========================================
   9:main.c        **** */
  10:main.c        **** #include "project.h"
  11:main.c        **** //#include <main.h>
  12:main.c        **** 
  13:main.c        **** static uint32 SPIS_WaitForCommand(void);
  14:main.c        **** static void SPIS_CleanupAfterRead(void);
  15:main.c        **** static uint8 ExecuteCommand(uint32 cmd, uint32 color);
  16:main.c        **** void setLED(uint32 firstLED, uint32 onLED, uint32 color);
  17:main.c        **** void determineColor(uint32 red, uint32 green, uint32 blue);
  18:main.c        **** const uint8 dummyBuffer[3u] = {0xFFu, 0xFFu, 0xFFu};
  19:main.c        **** void setBG(uint32 firstLED, uint32 lastLED);
  20:main.c        **** void rainbowFade2White();
  21:main.c        **** 
  22:main.c        **** int main(void)
  23:main.c        **** {
  24:main.c        ****     uint32 cmd = 0;
  25:main.c        ****     uint32 status;
  26:main.c        ****     CyGlobalIntEnable; /* Enable global interrupts. */
  27:main.c        ****     StripLights_Start();
  28:main.c        ****     SPIS_Start();
  29:main.c        **** 
  30:main.c        ****     /* Place your initialization/startup code here (e.g. MyInst_Start()) */
ARM GAS  C:\Users\Keith\AppData\Local\Temp\ccw7ZR9Y.s 			page 2


  31:main.c        ****     //
  32:main.c        ****     setBG (0, 550);
  33:main.c        ****     
  34:main.c        ****     int i = 51;
  35:main.c        ****     
  36:main.c        ****     for(;;){
  37:main.c        ****         
  38:main.c        ****         
  39:main.c        ****         //cmd = SPIS_WaitForCommand();
  40:main.c        ****         StripLights_OFF;
  41:main.c        ****         ExecuteCommand(cmd, StripLights_getColor((i + StripLights_CWHEEL_SIZE)));
  42:main.c        ****         
  43:main.c        ****         
  44:main.c        ****         cmd = cmd + 1u;
  45:main.c        ****         if(cmd > 15u) {
  46:main.c        ****             cmd = 0u;
  47:main.c        ****         }
  48:main.c        ****         
  49:main.c        ****         i = i + 10;
  50:main.c        ****         if(i >= 100) {
  51:main.c        ****             i = 10;
  52:main.c        ****         }
  53:main.c        ****         
  54:main.c        **** 
  55:main.c        ****         
  56:main.c        ****         //SPIS_CleanupAfterRead();
  57:main.c        ****     }
  58:main.c        ****     CyDelay(100);
  59:main.c        **** }
  60:main.c        **** 
  61:main.c        **** 
  62:main.c        **** static uint32 SPIS_WaitForCommand(void)
  63:main.c        **** {
  64:main.c        ****     uint8 tmpBuffer[3u];
  65:main.c        ****     uint32 cmd;
  66:main.c        ****     uint32 i;
  67:main.c        **** 
  68:main.c        ****     /* Wait for the end of the transfer */
  69:main.c        ****     while (3u != SPIS_SpiUartGetRxBufferSize())
  70:main.c        ****     {
  71:main.c        ****     }
  72:main.c        **** 
  73:main.c        ****     /* Read packet from the buffer */
  74:main.c        ****     i = 0u;
  75:main.c        ****     while (0u != SPIS_SpiUartGetRxBufferSize())
  76:main.c        ****     {
  77:main.c        ****         tmpBuffer[i] = SPIS_SpiUartReadRxData();
  78:main.c        ****         i = i + 1u;
  79:main.c        ****     }
  80:main.c        **** 
  81:main.c        ****     cmd = tmpBuffer[1u];
  82:main.c        **** 
  83:main.c        ****     return (cmd);
  84:main.c        **** }
  85:main.c        **** 
  86:main.c        **** static void SPIS_CleanupAfterRead(void)
  87:main.c        **** {
ARM GAS  C:\Users\Keith\AppData\Local\Temp\ccw7ZR9Y.s 			page 3


  88:main.c        ****     /* Wait for the end of the transfer */
  89:main.c        **** 
  90:main.c        ****     SPIS_SpiUartClearRxBuffer();
  91:main.c        **** 
  92:main.c        **** }
  93:main.c        **** 
  94:main.c        **** static uint8 ExecuteCommand(uint32 cmd, uint32 color)
  95:main.c        **** {
  96:main.c        ****     uint8 status;
  97:main.c        **** 
  98:main.c        ****     //status = STS_CMD_DONE;
  99:main.c        **** 
 100:main.c        ****     /* Execute received command */
 101:main.c        ****     switch (cmd)
 102:main.c        ****     {
 103:main.c        ****        
 104:main.c        ****         case 15u:
 105:main.c        ****             setLED (29, 54, color);
 106:main.c        ****             break; //1x7
 107:main.c        ****             
 108:main.c        ****         case 7u:
 109:main.c        ****             setLED (0, 28, color);
 110:main.c        ****             break;
 111:main.c        **** 
 112:main.c        ****         case 14u:
 113:main.c        ****             setLED (55, 82, color);
 114:main.c        ****             break; //1x6
 115:main.c        ****         
 116:main.c        ****         case 6u:
 117:main.c        ****             setLED (83, 112, color);
 118:main.c        ****             break; //0x6
 119:main.c        ****             
 120:main.c        ****         case 5u:
 121:main.c        ****             setLED (113, 140, color);
 122:main.c        ****             break; //0x5
 123:main.c        ****             
 124:main.c        ****         case 13u:
 125:main.c        ****             setLED (141, 167, color);
 126:main.c        ****             break; //1x5
 127:main.c        ****             
 128:main.c        ****         case 12u:
 129:main.c        ****             setLED (168, 194, color);
 130:main.c        ****             break; // 1x4
 131:main.c        ****             
 132:main.c        ****         case 4u:
 133:main.c        ****             setLED (195, 221, color);
 134:main.c        ****             break; // 0x4
 135:main.c        ****             
 136:main.c        ****         case 3u:
 137:main.c        ****             setLED (222, 248, color);
 138:main.c        ****             break; // 0x3
 139:main.c        **** 
 140:main.c        ****         case 11u:
 141:main.c        ****             setLED (249, 275, color);
 142:main.c        ****             break; // 1x3
 143:main.c        ****             
 144:main.c        ****         case 10u:
ARM GAS  C:\Users\Keith\AppData\Local\Temp\ccw7ZR9Y.s 			page 4


 145:main.c        ****             setLED (277, 304, color);
 146:main.c        ****             break; // 1x2
 147:main.c        ****             
 148:main.c        ****         case 2u:
 149:main.c        ****             setLED (305, 331, color);
 150:main.c        ****             break; // 0x2
 151:main.c        ****             
 152:main.c        ****         case 1u:
 153:main.c        ****             setLED (332, 358, color);
 154:main.c        ****             break; //0x1
 155:main.c        ****         
 156:main.c        ****         case 9u:
 157:main.c        ****             setLED (359, 385, color);
 158:main.c        ****             break; // 1x1
 159:main.c        ****             
 160:main.c        ****         case 8u:
 161:main.c        ****             setLED (386, 412, color);
 162:main.c        ****             break; // 1x0
 163:main.c        ****             
 164:main.c        ****         case 0u:
 165:main.c        ****             setLED (413, 438, color);
 166:main.c        ****             break; // 0x0
 167:main.c        **** 
 168:main.c        ****         default:
 169:main.c        ****             setBG (0, 550);
 170:main.c        ****             break;
 171:main.c        ****     }
 172:main.c        **** 
 173:main.c        ****     return (status);
 174:main.c        **** }
 175:main.c        **** 
 176:main.c        **** void setLED (uint32 firstLED, uint32 lastLED, uint32 color) {
  28              		.loc 1 176 0
  29              		.cfi_startproc
  30              		@ args = 0, pretend = 0, frame = 0
  31              		@ frame_needed = 0, uses_anonymous_args = 0
  32              	.LVL0:
  33 0000 70B5     		push	{r4, r5, r6, lr}
  34              		.cfi_def_cfa_offset 16
  35              		.cfi_offset 4, -16
  36              		.cfi_offset 5, -12
  37              		.cfi_offset 6, -8
  38              		.cfi_offset 14, -4
  39 0002 0400     		movs	r4, r0
  40 0004 0D00     		movs	r5, r1
  41 0006 1600     		movs	r6, r2
 177:main.c        ****     uint32 led;
 178:main.c        ****     
 179:main.c        ****     StripLights_Dim(2);
  42              		.loc 1 179 0
  43 0008 0220     		movs	r0, #2
  44              	.LVL1:
  45 000a FFF7FEFF 		bl	StripLights_Dim
  46              	.LVL2:
 180:main.c        ****     
 181:main.c        ****     for(led = firstLED; led <= lastLED; led++) {
  47              		.loc 1 181 0
ARM GAS  C:\Users\Keith\AppData\Local\Temp\ccw7ZR9Y.s 			page 5


  48 000e 0CE0     		b	.L2
  49              	.LVL3:
  50              	.L4:
 182:main.c        ****         StripLights_Pixel(led, 0, color);
  51              		.loc 1 182 0
  52 0010 3200     		movs	r2, r6
  53 0012 0021     		movs	r1, #0
  54 0014 2000     		movs	r0, r4
  55 0016 FFF7FEFF 		bl	StripLights_Pixel
  56              	.LVL4:
  57              	.L3:
 183:main.c        ****         while(StripLights_Ready() == 0);
  58              		.loc 1 183 0 discriminator 1
  59 001a FFF7FEFF 		bl	StripLights_Ready
  60              	.LVL5:
  61 001e 0028     		cmp	r0, #0
  62 0020 FBD0     		beq	.L3
 184:main.c        ****         CyDelay(10);
  63              		.loc 1 184 0 discriminator 2
  64 0022 0A20     		movs	r0, #10
  65 0024 FFF7FEFF 		bl	CyDelay
  66              	.LVL6:
 181:main.c        ****         StripLights_Pixel(led, 0, color);
  67              		.loc 1 181 0 discriminator 2
  68 0028 0134     		adds	r4, r4, #1
  69              	.LVL7:
  70              	.L2:
 181:main.c        ****         StripLights_Pixel(led, 0, color);
  71              		.loc 1 181 0 is_stmt 0 discriminator 1
  72 002a AC42     		cmp	r4, r5
  73 002c F0D9     		bls	.L4
 185:main.c        ****         
 186:main.c        ****     }
 187:main.c        ****     StripLights_Trigger(1);
  74              		.loc 1 187 0 is_stmt 1
  75 002e 0120     		movs	r0, #1
  76 0030 FFF7FEFF 		bl	StripLights_Trigger
  77              	.LVL8:
 188:main.c        ****     CyDelay(100);
  78              		.loc 1 188 0
  79 0034 6420     		movs	r0, #100
  80 0036 FFF7FEFF 		bl	CyDelay
  81              	.LVL9:
 189:main.c        **** }
  82              		.loc 1 189 0
  83              		@ sp needed
  84              	.LVL10:
  85              	.LVL11:
  86              	.LVL12:
  87 003a 70BD     		pop	{r4, r5, r6, pc}
  88              		.cfi_endproc
  89              	.LFE36:
  90              		.size	setLED, .-setLED
  91              		.section	.text.setBG,"ax",%progbits
  92              		.align	2
  93              		.global	setBG
  94              		.code	16
ARM GAS  C:\Users\Keith\AppData\Local\Temp\ccw7ZR9Y.s 			page 6


  95              		.thumb_func
  96              		.type	setBG, %function
  97              	setBG:
  98              	.LFB37:
 190:main.c        **** 
 191:main.c        **** void setBG(uint32 firstLED, uint32 lastLED) {
  99              		.loc 1 191 0
 100              		.cfi_startproc
 101              		@ args = 0, pretend = 0, frame = 0
 102              		@ frame_needed = 0, uses_anonymous_args = 0
 103              	.LVL13:
 104 0000 70B5     		push	{r4, r5, r6, lr}
 105              		.cfi_def_cfa_offset 16
 106              		.cfi_offset 4, -16
 107              		.cfi_offset 5, -12
 108              		.cfi_offset 6, -8
 109              		.cfi_offset 14, -4
 110 0002 0400     		movs	r4, r0
 111 0004 0D00     		movs	r5, r1
 192:main.c        **** uint32 led;
 193:main.c        ****     
 194:main.c        ****     StripLights_Dim(4);
 112              		.loc 1 194 0
 113 0006 0420     		movs	r0, #4
 114              	.LVL14:
 115 0008 FFF7FEFF 		bl	StripLights_Dim
 116              	.LVL15:
 195:main.c        ****     
 196:main.c        ****     for(led = firstLED; led <= lastLED; led++) {
 117              		.loc 1 196 0
 118 000c 0FE0     		b	.L6
 119              	.LVL16:
 120              	.L8:
 197:main.c        ****         StripLights_Pixel(led, 0, StripLights_OFF);
 121              		.loc 1 197 0
 122 000e 1820     		movs	r0, #24
 123 0010 FFF7FEFF 		bl	StripLights_getColor
 124              	.LVL17:
 125 0014 0200     		movs	r2, r0
 126 0016 0021     		movs	r1, #0
 127 0018 2000     		movs	r0, r4
 128 001a FFF7FEFF 		bl	StripLights_Pixel
 129              	.LVL18:
 130              	.L7:
 198:main.c        ****         while(StripLights_Ready() == 0);
 131              		.loc 1 198 0 discriminator 1
 132 001e FFF7FEFF 		bl	StripLights_Ready
 133              	.LVL19:
 134 0022 0028     		cmp	r0, #0
 135 0024 FBD0     		beq	.L7
 199:main.c        ****         CyDelay(10);
 136              		.loc 1 199 0 discriminator 2
 137 0026 0A20     		movs	r0, #10
 138 0028 FFF7FEFF 		bl	CyDelay
 139              	.LVL20:
 196:main.c        ****         StripLights_Pixel(led, 0, StripLights_OFF);
 140              		.loc 1 196 0 discriminator 2
ARM GAS  C:\Users\Keith\AppData\Local\Temp\ccw7ZR9Y.s 			page 7


 141 002c 0134     		adds	r4, r4, #1
 142              	.LVL21:
 143              	.L6:
 196:main.c        ****         StripLights_Pixel(led, 0, StripLights_OFF);
 144              		.loc 1 196 0 is_stmt 0 discriminator 1
 145 002e AC42     		cmp	r4, r5
 146 0030 EDD9     		bls	.L8
 200:main.c        ****         
 201:main.c        ****     }
 202:main.c        ****     StripLights_Trigger(1);
 147              		.loc 1 202 0 is_stmt 1
 148 0032 0120     		movs	r0, #1
 149 0034 FFF7FEFF 		bl	StripLights_Trigger
 150              	.LVL22:
 203:main.c        ****     CyDelay(100);
 151              		.loc 1 203 0
 152 0038 6420     		movs	r0, #100
 153 003a FFF7FEFF 		bl	CyDelay
 154              	.LVL23:
 204:main.c        **** }
 155              		.loc 1 204 0
 156              		@ sp needed
 157              	.LVL24:
 158              	.LVL25:
 159 003e 70BD     		pop	{r4, r5, r6, pc}
 160              		.cfi_endproc
 161              	.LFE37:
 162              		.size	setBG, .-setBG
 163              		.section	.text.ExecuteCommand,"ax",%progbits
 164              		.align	2
 165              		.code	16
 166              		.thumb_func
 167              		.type	ExecuteCommand, %function
 168              	ExecuteCommand:
 169              	.LFB35:
  95:main.c        ****     uint8 status;
 170              		.loc 1 95 0
 171              		.cfi_startproc
 172              		@ args = 0, pretend = 0, frame = 0
 173              		@ frame_needed = 0, uses_anonymous_args = 0
 174              	.LVL26:
 175 0000 10B5     		push	{r4, lr}
 176              		.cfi_def_cfa_offset 8
 177              		.cfi_offset 4, -8
 178              		.cfi_offset 14, -4
 101:main.c        ****     {
 179              		.loc 1 101 0
 180 0002 0F28     		cmp	r0, #15
 181 0004 70D8     		bhi	.L10
 182 0006 8000     		lsls	r0, r0, #2
 183              	.LVL27:
 184 0008 3A4B     		ldr	r3, .L29
 185 000a 1B58     		ldr	r3, [r3, r0]
 186 000c 9F46     		mov	pc, r3
 187              		.section	.rodata
 188              		.align	2
 189              	.L12:
ARM GAS  C:\Users\Keith\AppData\Local\Temp\ccw7ZR9Y.s 			page 8


 190 0000 D8000000 		.word	.L11
 191 0004 A8000000 		.word	.L13
 192 0008 98000000 		.word	.L14
 193 000c 6E000000 		.word	.L15
 194 0010 62000000 		.word	.L16
 195 0014 3E000000 		.word	.L17
 196 0018 32000000 		.word	.L18
 197 001c 1A000000 		.word	.L19
 198 0020 C8000000 		.word	.L20
 199 0024 B8000000 		.word	.L21
 200 0028 88000000 		.word	.L22
 201 002c 7A000000 		.word	.L23
 202 0030 56000000 		.word	.L24
 203 0034 4A000000 		.word	.L25
 204 0038 26000000 		.word	.L26
 205 003c 0E000000 		.word	.L27
 206              		.section	.text.ExecuteCommand
 207              	.L27:
 105:main.c        ****             break; //1x7
 208              		.loc 1 105 0
 209 000e 0A00     		movs	r2, r1
 210 0010 3621     		movs	r1, #54
 211              	.LVL28:
 212 0012 1D20     		movs	r0, #29
 213 0014 FFF7FEFF 		bl	setLED
 214              	.LVL29:
 106:main.c        ****             
 215              		.loc 1 106 0
 216 0018 6AE0     		b	.L28
 217              	.LVL30:
 218              	.L19:
 109:main.c        ****             break;
 219              		.loc 1 109 0
 220 001a 0A00     		movs	r2, r1
 221 001c 1C21     		movs	r1, #28
 222              	.LVL31:
 223 001e 0020     		movs	r0, #0
 224 0020 FFF7FEFF 		bl	setLED
 225              	.LVL32:
 110:main.c        **** 
 226              		.loc 1 110 0
 227 0024 64E0     		b	.L28
 228              	.LVL33:
 229              	.L26:
 113:main.c        ****             break; //1x6
 230              		.loc 1 113 0
 231 0026 0A00     		movs	r2, r1
 232 0028 5221     		movs	r1, #82
 233              	.LVL34:
 234 002a 3720     		movs	r0, #55
 235 002c FFF7FEFF 		bl	setLED
 236              	.LVL35:
 114:main.c        ****         
 237              		.loc 1 114 0
 238 0030 5EE0     		b	.L28
 239              	.LVL36:
 240              	.L18:
ARM GAS  C:\Users\Keith\AppData\Local\Temp\ccw7ZR9Y.s 			page 9


 117:main.c        ****             break; //0x6
 241              		.loc 1 117 0
 242 0032 0A00     		movs	r2, r1
 243 0034 7021     		movs	r1, #112
 244              	.LVL37:
 245 0036 5320     		movs	r0, #83
 246 0038 FFF7FEFF 		bl	setLED
 247              	.LVL38:
 118:main.c        ****             
 248              		.loc 1 118 0
 249 003c 58E0     		b	.L28
 250              	.LVL39:
 251              	.L17:
 121:main.c        ****             break; //0x5
 252              		.loc 1 121 0
 253 003e 0A00     		movs	r2, r1
 254 0040 8C21     		movs	r1, #140
 255              	.LVL40:
 256 0042 7120     		movs	r0, #113
 257 0044 FFF7FEFF 		bl	setLED
 258              	.LVL41:
 122:main.c        ****             
 259              		.loc 1 122 0
 260 0048 52E0     		b	.L28
 261              	.LVL42:
 262              	.L25:
 125:main.c        ****             break; //1x5
 263              		.loc 1 125 0
 264 004a 0A00     		movs	r2, r1
 265 004c A721     		movs	r1, #167
 266              	.LVL43:
 267 004e 8D20     		movs	r0, #141
 268 0050 FFF7FEFF 		bl	setLED
 269              	.LVL44:
 126:main.c        ****             
 270              		.loc 1 126 0
 271 0054 4CE0     		b	.L28
 272              	.LVL45:
 273              	.L24:
 129:main.c        ****             break; // 1x4
 274              		.loc 1 129 0
 275 0056 0A00     		movs	r2, r1
 276 0058 C221     		movs	r1, #194
 277              	.LVL46:
 278 005a A820     		movs	r0, #168
 279 005c FFF7FEFF 		bl	setLED
 280              	.LVL47:
 130:main.c        ****             
 281              		.loc 1 130 0
 282 0060 46E0     		b	.L28
 283              	.LVL48:
 284              	.L16:
 133:main.c        ****             break; // 0x4
 285              		.loc 1 133 0
 286 0062 0A00     		movs	r2, r1
 287 0064 DD21     		movs	r1, #221
 288              	.LVL49:
ARM GAS  C:\Users\Keith\AppData\Local\Temp\ccw7ZR9Y.s 			page 10


 289 0066 C320     		movs	r0, #195
 290 0068 FFF7FEFF 		bl	setLED
 291              	.LVL50:
 134:main.c        ****             
 292              		.loc 1 134 0
 293 006c 40E0     		b	.L28
 294              	.LVL51:
 295              	.L15:
 137:main.c        ****             break; // 0x3
 296              		.loc 1 137 0
 297 006e 0A00     		movs	r2, r1
 298 0070 F821     		movs	r1, #248
 299              	.LVL52:
 300 0072 DE20     		movs	r0, #222
 301 0074 FFF7FEFF 		bl	setLED
 302              	.LVL53:
 138:main.c        **** 
 303              		.loc 1 138 0
 304 0078 3AE0     		b	.L28
 305              	.LVL54:
 306              	.L23:
 141:main.c        ****             break; // 1x3
 307              		.loc 1 141 0
 308 007a 0A00     		movs	r2, r1
 309 007c 1421     		movs	r1, #20
 310              	.LVL55:
 311 007e FF31     		adds	r1, r1, #255
 312 0080 F920     		movs	r0, #249
 313 0082 FFF7FEFF 		bl	setLED
 314              	.LVL56:
 142:main.c        ****             
 315              		.loc 1 142 0
 316 0086 33E0     		b	.L28
 317              	.LVL57:
 318              	.L22:
 145:main.c        ****             break; // 1x2
 319              		.loc 1 145 0
 320 0088 0A00     		movs	r2, r1
 321 008a 9821     		movs	r1, #152
 322              	.LVL58:
 323 008c 4900     		lsls	r1, r1, #1
 324 008e 1620     		movs	r0, #22
 325 0090 FF30     		adds	r0, r0, #255
 326 0092 FFF7FEFF 		bl	setLED
 327              	.LVL59:
 146:main.c        ****             
 328              		.loc 1 146 0
 329 0096 2BE0     		b	.L28
 330              	.LVL60:
 331              	.L14:
 149:main.c        ****             break; // 0x2
 332              		.loc 1 149 0
 333 0098 0A00     		movs	r2, r1
 334 009a 4C21     		movs	r1, #76
 335              	.LVL61:
 336 009c FF31     		adds	r1, r1, #255
 337 009e 3220     		movs	r0, #50
ARM GAS  C:\Users\Keith\AppData\Local\Temp\ccw7ZR9Y.s 			page 11


 338 00a0 FF30     		adds	r0, r0, #255
 339 00a2 FFF7FEFF 		bl	setLED
 340              	.LVL62:
 150:main.c        ****             
 341              		.loc 1 150 0
 342 00a6 23E0     		b	.L28
 343              	.LVL63:
 344              	.L13:
 153:main.c        ****             break; //0x1
 345              		.loc 1 153 0
 346 00a8 0A00     		movs	r2, r1
 347 00aa B321     		movs	r1, #179
 348              	.LVL64:
 349 00ac 4900     		lsls	r1, r1, #1
 350 00ae A620     		movs	r0, #166
 351 00b0 4000     		lsls	r0, r0, #1
 352 00b2 FFF7FEFF 		bl	setLED
 353              	.LVL65:
 154:main.c        ****         
 354              		.loc 1 154 0
 355 00b6 1BE0     		b	.L28
 356              	.LVL66:
 357              	.L21:
 157:main.c        ****             break; // 1x1
 358              		.loc 1 157 0
 359 00b8 0A00     		movs	r2, r1
 360 00ba 8221     		movs	r1, #130
 361              	.LVL67:
 362 00bc FF31     		adds	r1, r1, #255
 363 00be 6820     		movs	r0, #104
 364 00c0 FF30     		adds	r0, r0, #255
 365 00c2 FFF7FEFF 		bl	setLED
 366              	.LVL68:
 158:main.c        ****             
 367              		.loc 1 158 0
 368 00c6 13E0     		b	.L28
 369              	.LVL69:
 370              	.L20:
 161:main.c        ****             break; // 1x0
 371              		.loc 1 161 0
 372 00c8 0A00     		movs	r2, r1
 373 00ca CE21     		movs	r1, #206
 374              	.LVL70:
 375 00cc 4900     		lsls	r1, r1, #1
 376 00ce C120     		movs	r0, #193
 377 00d0 4000     		lsls	r0, r0, #1
 378 00d2 FFF7FEFF 		bl	setLED
 379              	.LVL71:
 162:main.c        ****             
 380              		.loc 1 162 0
 381 00d6 0BE0     		b	.L28
 382              	.LVL72:
 383              	.L11:
 165:main.c        ****             break; // 0x0
 384              		.loc 1 165 0
 385 00d8 0A00     		movs	r2, r1
 386 00da DB21     		movs	r1, #219
ARM GAS  C:\Users\Keith\AppData\Local\Temp\ccw7ZR9Y.s 			page 12


 387              	.LVL73:
 388 00dc 4900     		lsls	r1, r1, #1
 389 00de 9E20     		movs	r0, #158
 390 00e0 FF30     		adds	r0, r0, #255
 391 00e2 FFF7FEFF 		bl	setLED
 392              	.LVL74:
 166:main.c        **** 
 393              		.loc 1 166 0
 394 00e6 03E0     		b	.L28
 395              	.LVL75:
 396              	.L10:
 169:main.c        ****             break;
 397              		.loc 1 169 0
 398 00e8 0349     		ldr	r1, .L29+4
 399              	.LVL76:
 400 00ea 0020     		movs	r0, #0
 401              	.LVL77:
 402 00ec FFF7FEFF 		bl	setBG
 403              	.LVL78:
 404              	.L28:
 174:main.c        **** 
 405              		.loc 1 174 0
 406 00f0 0020     		movs	r0, #0
 407              		@ sp needed
 408 00f2 10BD     		pop	{r4, pc}
 409              	.L30:
 410              		.align	2
 411              	.L29:
 412 00f4 00000000 		.word	.L12
 413 00f8 26020000 		.word	550
 414              		.cfi_endproc
 415              	.LFE35:
 416              		.size	ExecuteCommand, .-ExecuteCommand
 417              		.section	.text.main,"ax",%progbits
 418              		.align	2
 419              		.global	main
 420              		.code	16
 421              		.thumb_func
 422              		.type	main, %function
 423              	main:
 424              	.LFB32:
  23:main.c        ****     uint32 cmd = 0;
 425              		.loc 1 23 0
 426              		.cfi_startproc
 427              		@ args = 0, pretend = 0, frame = 0
 428              		@ frame_needed = 0, uses_anonymous_args = 0
 429 0000 70B5     		push	{r4, r5, r6, lr}
 430              		.cfi_def_cfa_offset 16
 431              		.cfi_offset 4, -16
 432              		.cfi_offset 5, -12
 433              		.cfi_offset 6, -8
 434              		.cfi_offset 14, -4
 435              	.LVL79:
  26:main.c        ****     StripLights_Start();
 436              		.loc 1 26 0
 437              		.syntax divided
 438              	@ 26 "main.c" 1
ARM GAS  C:\Users\Keith\AppData\Local\Temp\ccw7ZR9Y.s 			page 13


 439 0002 62B6     		CPSIE   i
 440              	@ 0 "" 2
  27:main.c        ****     SPIS_Start();
 441              		.loc 1 27 0
 442              		.thumb
 443              		.syntax unified
 444 0004 FFF7FEFF 		bl	StripLights_Start
 445              	.LVL80:
  28:main.c        **** 
 446              		.loc 1 28 0
 447 0008 FFF7FEFF 		bl	SPIS_Start
 448              	.LVL81:
  32:main.c        ****     
 449              		.loc 1 32 0
 450 000c 0D49     		ldr	r1, .L38
 451 000e 0020     		movs	r0, #0
 452 0010 FFF7FEFF 		bl	setBG
 453              	.LVL82:
  34:main.c        ****     
 454              		.loc 1 34 0
 455 0014 3325     		movs	r5, #51
  24:main.c        ****     uint32 status;
 456              		.loc 1 24 0
 457 0016 0024     		movs	r4, #0
 458 0018 00E0     		b	.L32
 459              	.LVL83:
 460              	.L37:
  51:main.c        ****         }
 461              		.loc 1 51 0
 462 001a 0A25     		movs	r5, #10
 463              	.LVL84:
 464              	.L32:
  40:main.c        ****         ExecuteCommand(cmd, StripLights_getColor((i + StripLights_CWHEEL_SIZE)));
 465              		.loc 1 40 0
 466 001c 1820     		movs	r0, #24
 467 001e FFF7FEFF 		bl	StripLights_getColor
 468              	.LVL85:
  41:main.c        ****         
 469              		.loc 1 41 0
 470 0022 2800     		movs	r0, r5
 471 0024 1830     		adds	r0, r0, #24
 472 0026 FFF7FEFF 		bl	StripLights_getColor
 473              	.LVL86:
 474 002a 0100     		movs	r1, r0
 475 002c 2000     		movs	r0, r4
 476 002e FFF7FEFF 		bl	ExecuteCommand
 477              	.LVL87:
  44:main.c        ****         if(cmd > 15u) {
 478              		.loc 1 44 0
 479 0032 0134     		adds	r4, r4, #1
 480              	.LVL88:
  45:main.c        ****             cmd = 0u;
 481              		.loc 1 45 0
 482 0034 0F2C     		cmp	r4, #15
 483 0036 00D9     		bls	.L33
  46:main.c        ****         }
 484              		.loc 1 46 0
ARM GAS  C:\Users\Keith\AppData\Local\Temp\ccw7ZR9Y.s 			page 14


 485 0038 0024     		movs	r4, #0
 486              	.LVL89:
 487              	.L33:
  49:main.c        ****         if(i >= 100) {
 488              		.loc 1 49 0
 489 003a 0A35     		adds	r5, r5, #10
 490              	.LVL90:
  50:main.c        ****             i = 10;
 491              		.loc 1 50 0
 492 003c 632D     		cmp	r5, #99
 493 003e ECDC     		bgt	.L37
 494 0040 ECE7     		b	.L32
 495              	.L39:
 496 0042 C046     		.align	2
 497              	.L38:
 498 0044 26020000 		.word	550
 499              		.cfi_endproc
 500              	.LFE32:
 501              		.size	main, .-main
 502              		.section	.text.rainbow,"ax",%progbits
 503              		.align	2
 504              		.global	rainbow
 505              		.code	16
 506              		.thumb_func
 507              		.type	rainbow, %function
 508              	rainbow:
 509              	.LFB38:
 205:main.c        **** 
 206:main.c        **** 
 207:main.c        **** void rainbow(uint32 startingColor, uint32 firstLED, uint32 lastLED) {
 510              		.loc 1 207 0
 511              		.cfi_startproc
 512              		@ args = 0, pretend = 0, frame = 0
 513              		@ frame_needed = 0, uses_anonymous_args = 0
 514              	.LVL91:
 515 0000 F8B5     		push	{r3, r4, r5, r6, r7, lr}
 516              		.cfi_def_cfa_offset 24
 517              		.cfi_offset 3, -24
 518              		.cfi_offset 4, -20
 519              		.cfi_offset 5, -16
 520              		.cfi_offset 6, -12
 521              		.cfi_offset 7, -8
 522              		.cfi_offset 14, -4
 523 0002 0D00     		movs	r5, r1
 524 0004 1700     		movs	r7, r2
 525              	.LBB2:
 208:main.c        ****     
 209:main.c        ****     for(int i = startingColor; i < 256; i++){
 526              		.loc 1 209 0
 527 0006 0600     		movs	r6, r0
 528              	.LVL92:
 529 0008 1AE0     		b	.L41
 530              	.LVL93:
 531              	.L46:
 532              	.LBB3:
 210:main.c        ****         for(int j = firstLED; j <= lastLED; j++) {
 533              		.loc 1 210 0
ARM GAS  C:\Users\Keith\AppData\Local\Temp\ccw7ZR9Y.s 			page 15


 534 000a 2C00     		movs	r4, r5
 535              	.LVL94:
 536 000c 10E0     		b	.L42
 537              	.L44:
 211:main.c        ****             StripLights_Pixel(j, 0, StripLights_getColor(i + StripLights_CWHEEL_SIZE));
 538              		.loc 1 211 0
 539 000e 3000     		movs	r0, r6
 540 0010 1830     		adds	r0, r0, #24
 541 0012 FFF7FEFF 		bl	StripLights_getColor
 542              	.LVL95:
 543 0016 0200     		movs	r2, r0
 544 0018 0021     		movs	r1, #0
 545 001a 2000     		movs	r0, r4
 546 001c FFF7FEFF 		bl	StripLights_Pixel
 547              	.LVL96:
 548              	.L43:
 212:main.c        ****             while(StripLights_Ready() == 0);
 549              		.loc 1 212 0 discriminator 1
 550 0020 FFF7FEFF 		bl	StripLights_Ready
 551              	.LVL97:
 552 0024 0028     		cmp	r0, #0
 553 0026 FBD0     		beq	.L43
 213:main.c        ****             StripLights_Trigger(1);
 554              		.loc 1 213 0 discriminator 2
 555 0028 0120     		movs	r0, #1
 556 002a FFF7FEFF 		bl	StripLights_Trigger
 557              	.LVL98:
 210:main.c        ****             StripLights_Pixel(j, 0, StripLights_getColor(i + StripLights_CWHEEL_SIZE));
 558              		.loc 1 210 0 discriminator 2
 559 002e 0134     		adds	r4, r4, #1
 560              	.LVL99:
 561              	.L42:
 210:main.c        ****             StripLights_Pixel(j, 0, StripLights_getColor(i + StripLights_CWHEEL_SIZE));
 562              		.loc 1 210 0 is_stmt 0 discriminator 1
 563 0030 BC42     		cmp	r4, r7
 564 0032 ECD9     		bls	.L44
 565              	.LBE3:
 214:main.c        ****             
 215:main.c        ****         }
 216:main.c        ****         if (i == 256) {
 566              		.loc 1 216 0 is_stmt 1
 567 0034 8023     		movs	r3, #128
 568 0036 5B00     		lsls	r3, r3, #1
 569 0038 9E42     		cmp	r6, r3
 570 003a 00D1     		bne	.L45
 217:main.c        ****             i=0;
 571              		.loc 1 217 0
 572 003c 0026     		movs	r6, #0
 573              	.LVL100:
 574              	.L45:
 209:main.c        ****         for(int j = firstLED; j <= lastLED; j++) {
 575              		.loc 1 209 0 discriminator 2
 576 003e 0136     		adds	r6, r6, #1
 577              	.LVL101:
 578              	.L41:
 209:main.c        ****         for(int j = firstLED; j <= lastLED; j++) {
 579              		.loc 1 209 0 is_stmt 0 discriminator 1
ARM GAS  C:\Users\Keith\AppData\Local\Temp\ccw7ZR9Y.s 			page 16


 580 0040 FF2E     		cmp	r6, #255
 581 0042 E2DD     		ble	.L46
 582              	.LBE2:
 218:main.c        ****         }
 219:main.c        ****     }
 220:main.c        **** }
 583              		.loc 1 220 0 is_stmt 1
 584              		@ sp needed
 585              	.LVL102:
 586              	.LVL103:
 587              	.LVL104:
 588 0044 F8BD     		pop	{r3, r4, r5, r6, r7, pc}
 589              		.cfi_endproc
 590              	.LFE38:
 591              		.size	rainbow, .-rainbow
 592 0046 C046     		.section	.text.rainbowCrawl,"ax",%progbits
 593              		.align	2
 594              		.global	rainbowCrawl
 595              		.code	16
 596              		.thumb_func
 597              		.type	rainbowCrawl, %function
 598              	rainbowCrawl:
 599              	.LFB39:
 221:main.c        **** 
 222:main.c        **** void rainbowCrawl(uint32 firstLED, uint32 lastLED) {
 600              		.loc 1 222 0
 601              		.cfi_startproc
 602              		@ args = 0, pretend = 0, frame = 0
 603              		@ frame_needed = 0, uses_anonymous_args = 0
 604              	.LVL105:
 605 0000 70B5     		push	{r4, r5, r6, lr}
 606              		.cfi_def_cfa_offset 16
 607              		.cfi_offset 4, -16
 608              		.cfi_offset 5, -12
 609              		.cfi_offset 6, -8
 610              		.cfi_offset 14, -4
 611 0002 0500     		movs	r5, r0
 612 0004 0E00     		movs	r6, r1
 613              	.LVL106:
 614              	.LBB4:
 223:main.c        ****     for(uint32 i = 0, j = firstLED; i < 27 && j < lastLED; i++, j++){
 615              		.loc 1 223 0
 616 0006 0024     		movs	r4, #0
 617 0008 1CE0     		b	.L49
 618              	.LVL107:
 619              	.L53:
 224:main.c        ****             StripLights_Dim(2);
 620              		.loc 1 224 0
 621 000a 0220     		movs	r0, #2
 622 000c FFF7FEFF 		bl	StripLights_Dim
 623              	.LVL108:
 225:main.c        ****             StripLights_Pixel(j, 0, StripLights_getColor(i));
 624              		.loc 1 225 0
 625 0010 2000     		movs	r0, r4
 626 0012 FFF7FEFF 		bl	StripLights_getColor
 627              	.LVL109:
 628 0016 0200     		movs	r2, r0
ARM GAS  C:\Users\Keith\AppData\Local\Temp\ccw7ZR9Y.s 			page 17


 629 0018 0021     		movs	r1, #0
 630 001a 2800     		movs	r0, r5
 631 001c FFF7FEFF 		bl	StripLights_Pixel
 632              	.LVL110:
 633              	.L50:
 226:main.c        ****             while(StripLights_Ready() == 0);
 634              		.loc 1 226 0 discriminator 1
 635 0020 FFF7FEFF 		bl	StripLights_Ready
 636              	.LVL111:
 637 0024 0028     		cmp	r0, #0
 638 0026 FBD0     		beq	.L50
 227:main.c        ****             CyDelay(20);
 639              		.loc 1 227 0
 640 0028 1420     		movs	r0, #20
 641 002a FFF7FEFF 		bl	CyDelay
 642              	.LVL112:
 228:main.c        ****             if(i >= 26) {
 643              		.loc 1 228 0
 644 002e 192C     		cmp	r4, #25
 645 0030 00D9     		bls	.L51
 229:main.c        ****                 i = 0;
 646              		.loc 1 229 0
 647 0032 0024     		movs	r4, #0
 648              	.LVL113:
 649              	.L51:
 230:main.c        ****             }
 231:main.c        ****         StripLights_Trigger(1);
 650              		.loc 1 231 0 discriminator 2
 651 0034 0120     		movs	r0, #1
 652 0036 FFF7FEFF 		bl	StripLights_Trigger
 653              	.LVL114:
 232:main.c        ****         CyDelay(20);    
 654              		.loc 1 232 0 discriminator 2
 655 003a 1420     		movs	r0, #20
 656 003c FFF7FEFF 		bl	CyDelay
 657              	.LVL115:
 223:main.c        ****             StripLights_Dim(2);
 658              		.loc 1 223 0 discriminator 2
 659 0040 0134     		adds	r4, r4, #1
 660              	.LVL116:
 661 0042 0135     		adds	r5, r5, #1
 662              	.LVL117:
 663              	.L49:
 223:main.c        ****             StripLights_Dim(2);
 664              		.loc 1 223 0 is_stmt 0 discriminator 1
 665 0044 1A2C     		cmp	r4, #26
 666 0046 01D8     		bhi	.L48
 223:main.c        ****             StripLights_Dim(2);
 667              		.loc 1 223 0 discriminator 3
 668 0048 B542     		cmp	r5, r6
 669 004a DED3     		bcc	.L53
 670              	.L48:
 671              	.LBE4:
 233:main.c        ****     }
 234:main.c        ****     //CyDelay(100);
 235:main.c        **** 
 236:main.c        **** }
ARM GAS  C:\Users\Keith\AppData\Local\Temp\ccw7ZR9Y.s 			page 18


 672              		.loc 1 236 0 is_stmt 1
 673              		@ sp needed
 674              	.LVL118:
 675              	.LVL119:
 676              	.LVL120:
 677 004c 70BD     		pop	{r4, r5, r6, pc}
 678              		.cfi_endproc
 679              	.LFE39:
 680              		.size	rainbowCrawl, .-rainbowCrawl
 681              		.global	dummyBuffer
 682 004e C046     		.section	.rodata
 683              		.align	2
 684              		.type	dummyBuffer, %object
 685              		.size	dummyBuffer, 3
 686              	dummyBuffer:
 687 0040 FF       		.byte	-1
 688 0041 FF       		.byte	-1
 689 0042 FF       		.byte	-1
 690              		.text
 691              	.Letext0:
 692              		.file 2 "Generated_Source\\PSoC4/cytypes.h"
 693              		.file 3 "Generated_Source\\PSoC4/StripLights.h"
 694              		.file 4 "Generated_Source\\PSoC4/CyLib.h"
 695              		.file 5 "Generated_Source\\PSoC4/SPIS.h"